(dp1
S'failed'
p2
(lp3
sS'source_names'
p4
(lp5
S'tests.tests01_geom'
p6
asS'ids'
p7
(dp8
I1
(S'/Home/DV226270/ToFu_All/tofu_git/tofu/tests/tests01_geom/tests01_GG.py'
S'tests.tests01_geom.tests01_GG'
p9
S'test01_CoordShift'
tp10
sI2
(S'/Home/DV226270/ToFu_All/tofu_git/tofu/tests/tests01_geom/tests01_GG.py'
g9
S'test02_Poly_CLockOrder'
tp11
sI3
(S'/Home/DV226270/ToFu_All/tofu_git/tofu/tests/tests01_geom/tests01_GG.py'
g9
S'test03_Poly_VolAngTor'
tp12
sI4
(S'/Home/DV226270/ToFu_All/tofu_git/tofu/tests/tests01_geom/tests01_GG.py'
g9
S'test02_Ves_isInside'
tp13
sI5
(S'/Home/DV226270/ToFu_All/tofu_git/tofu/tests/tests01_geom/tests01_GG.py'
g9
S'test03_Ves_mesh_dlfromL'
tp14
sI6
(S'/Home/DV226270/ToFu_All/tofu_git/tofu/tests/tests01_geom/tests01_GG.py'
g9
S'test03_Ves_Smesh_Cross'
tp15
sI7
(S'/Home/DV226270/ToFu_All/tofu_git/tofu/tests/tests01_geom/tests01_GG.py'
g9
S'test04_Ves_Vmesh_Tor'
tp16
sI8
(S'/Home/DV226270/ToFu_All/tofu_git/tofu/tests/tests01_geom/tests01_GG.py'
g9
S'test05_Ves_Vmesh_Lin'
tp17
sI9
(S'/Home/DV226270/ToFu_All/tofu_git/tofu/tests/tests01_geom/tests01_GG.py'
g9
S'test06_Ves_Smesh_Tor'
tp18
sI10
(S'/Home/DV226270/ToFu_All/tofu_git/tofu/tests/tests01_geom/tests01_GG.py'
g9
S'test07_Ves_Smesh_Tor_PhiMinMax'
tp19
sI11
(S'/Home/DV226270/ToFu_All/tofu_git/tofu/tests/tests01_geom/tests01_GG.py'
g9
S'test08_Ves_Smesh_TorStruct'
tp20
sI12
(S'/Home/DV226270/ToFu_All/tofu_git/tofu/tests/tests01_geom/tests01_GG.py'
g9
S'test09_Ves_Smesh_Lin'
tp21
sI13
(S'/Home/DV226270/ToFu_All/tofu_git/tofu/tests/tests01_geom/tests03_core.py'
S'tests.tests01_geom.tests03_core'
p22
S'Test01_Ves.test01_isInside'
tp23
sI14
(S'/Home/DV226270/ToFu_All/tofu_git/tofu/tests/tests01_geom/tests03_core.py'
g22
S'Test01_Ves.test02_InsideConvexPoly'
tp24
sI15
(S'/Home/DV226270/ToFu_All/tofu_git/tofu/tests/tests01_geom/tests03_core.py'
g22
S'Test01_Ves.test03_get_meshEdge'
tp25
sI16
(S'/Home/DV226270/ToFu_All/tofu_git/tofu/tests/tests01_geom/tests03_core.py'
g22
S'Test01_Ves.test04_get_meshCross'
tp26
sI17
(S'/Home/DV226270/ToFu_All/tofu_git/tofu/tests/tests01_geom/tests03_core.py'
g22
S'Test01_Ves.test05_get_meshS'
tp27
sI18
(S'/Home/DV226270/ToFu_All/tofu_git/tofu/tests/tests01_geom/tests03_core.py'
g22
S'Test01_Ves.test06_get_meshV'
tp28
sI19
(S'/Home/DV226270/ToFu_All/tofu_git/tofu/tests/tests01_geom/tests03_core.py'
g22
S'Test01_Ves.test07_plot'
tp29
sI20
(S'/Home/DV226270/ToFu_All/tofu_git/tofu/tests/tests01_geom/tests03_core.py'
g22
S'Test01_Ves.test08_plot_sino'
tp30
sI21
(S'/Home/DV226270/ToFu_All/tofu_git/tofu/tests/tests01_geom/tests03_core.py'
g22
S'Test01_Ves.test09_saveload'
tp31
sI22
(S'/Home/DV226270/ToFu_All/tofu_git/tofu/tests/tests01_geom/tests03_core.py'
g22
S'Test02_Struct.test01_isInside'
tp32
sI23
(S'/Home/DV226270/ToFu_All/tofu_git/tofu/tests/tests01_geom/tests03_core.py'
g22
S'Test02_Struct.test02_InsideConvexPoly'
tp33
sI24
(S'/Home/DV226270/ToFu_All/tofu_git/tofu/tests/tests01_geom/tests03_core.py'
g22
S'Test02_Struct.test03_get_meshEdge'
tp34
sI25
(S'/Home/DV226270/ToFu_All/tofu_git/tofu/tests/tests01_geom/tests03_core.py'
g22
S'Test02_Struct.test04_get_meshCross'
tp35
sI26
(S'/Home/DV226270/ToFu_All/tofu_git/tofu/tests/tests01_geom/tests03_core.py'
g22
S'Test02_Struct.test05_get_meshS'
tp36
sI27
(S'/Home/DV226270/ToFu_All/tofu_git/tofu/tests/tests01_geom/tests03_core.py'
g22
S'Test02_Struct.test06_get_meshV'
tp37
sI28
(S'/Home/DV226270/ToFu_All/tofu_git/tofu/tests/tests01_geom/tests03_core.py'
g22
S'Test02_Struct.test07_plot'
tp38
sI29
(S'/Home/DV226270/ToFu_All/tofu_git/tofu/tests/tests01_geom/tests03_core.py'
g22
S'Test02_Struct.test08_plot_sino'
tp39
sI30
(S'/Home/DV226270/ToFu_All/tofu_git/tofu/tests/tests01_geom/tests03_core.py'
g22
S'Test02_Struct.test09_saveload'
tp40
ss.